; ModuleID = 'source-C-CXX/25/556.c'
source_filename = "source-C-CXX/25/556.c"
target datalayout = "e-m:e-p270:32:32-p271:32:32-p272:64:64-i64:64-f80:128-n8:16:32:64-S128"
target triple = "x86_64-pc-linux-gnu"

; Function Attrs: nounwind sspstrong uwtable
define dso_local void @main() local_unnamed_addr #0 {
  %1 = alloca [1000 x i8], align 16
  %2 = getelementptr inbounds [1000 x i8], [1000 x i8]* %1, i64 0, i64 0
  call void @llvm.lifetime.start.p0i8(i64 1000, i8* nonnull %2) #5
  %3 = call i32 (i8*, ...) bitcast (i32 (...)* @gets to i32 (i8*, ...)*)(i8* nonnull %2) #5
  %4 = call i64 @strlen(i8* noundef nonnull %2) #6
  %5 = trunc i64 %4 to i32
  %6 = icmp sgt i32 %5, 0
  br i1 %6, label %7, label %33

7:                                                ; preds = %0
  %8 = and i64 %4, 4294967295
  br label %9

9:                                                ; preds = %7, %29
  %10 = phi i64 [ 0, %7 ], [ %31, %29 ]
  %11 = phi i32 [ 0, %7 ], [ %30, %29 ]
  %12 = getelementptr inbounds [1000 x i8], [1000 x i8]* %1, i64 0, i64 %10
  %13 = load i8, i8* %12, align 1, !tbaa !5
  %14 = and i8 %13, -33
  %15 = add i8 %14, -65
  %16 = icmp ult i8 %15, 26
  br i1 %16, label %17, label %19

17:                                               ; preds = %9
  %18 = zext i8 %13 to i32
  br label %25

19:                                               ; preds = %9
  %20 = icmp eq i8 %13, 46
  br i1 %20, label %25, label %21

21:                                               ; preds = %19
  %22 = icmp eq i8 %13, 32
  %23 = icmp eq i32 %11, 0
  %24 = select i1 %22, i1 %23, i1 false
  br i1 %24, label %25, label %29

25:                                               ; preds = %21, %19, %17
  %26 = phi i32 [ %18, %17 ], [ 46, %19 ], [ 32, %21 ]
  %27 = phi i32 [ 0, %17 ], [ 1, %19 ], [ 1, %21 ]
  %28 = call i32 @putchar(i32 %26)
  br label %29

29:                                               ; preds = %25, %21
  %30 = phi i32 [ %11, %21 ], [ %27, %25 ]
  %31 = add nuw nsw i64 %10, 1
  %32 = icmp eq i64 %31, %8
  br i1 %32, label %33, label %9, !llvm.loop !8

33:                                               ; preds = %29, %0
  %34 = call i32 @putchar(i32 10)
  call void @llvm.lifetime.end.p0i8(i64 1000, i8* nonnull %2) #5
  ret void
}

; Function Attrs: argmemonly mustprogress nofree nosync nounwind willreturn
declare void @llvm.lifetime.start.p0i8(i64 immarg, i8* nocapture) #1

declare i32 @gets(...) local_unnamed_addr #2

; Function Attrs: argmemonly mustprogress nofree nounwind readonly willreturn
declare i64 @strlen(i8* nocapture) local_unnamed_addr #3

; Function Attrs: argmemonly mustprogress nofree nosync nounwind willreturn
declare void @llvm.lifetime.end.p0i8(i64 immarg, i8* nocapture) #1

; Function Attrs: nofree nounwind
declare noundef i32 @putchar(i32 noundef) local_unnamed_addr #4


!llvm.module.flags = !{!0, !1, !2, !3}
!llvm.ident = !{!4}

!0 = !{i32 1, !"wchar_size", i32 4}
!1 = !{i32 7, !"PIC Level", i32 2}
!2 = !{i32 7, !"PIE Level", i32 2}
!3 = !{i32 7, !"uwtable", i32 1}
!4 = !{!"clang version 13.0.0"}
!5 = !{!6, !6, i64 0}
!6 = !{!"omnipotent char", !7, i64 0}
!7 = !{!"Simple C/C++ TBAA"}
!8 = distinct !{!8, !9}
!9 = !{!"llvm.loop.mustprogress"}
